target datalayout = "e-m:e-p270:32:32-p271:32:32-p272:64:64-i64:64-i128:128-f80:128-n8:16:32:64-S128"
target triple = "x86_64-pc-linux-gnu"

%struct.UConverter = type { ptr, ptr, ptr, ptr, ptr, ptr, ptr, i32, i8, i8, i8, i8, i8, [7 x i8], i32, i32, i32, i32, i8, i8, i8, i8, i8, i8, i8, i8, [8 x i8], [32 x i8], [2 x i16], [2 x i16], [32 x i16], i32, [19 x i16], [31 x i8], i8, i8, i8, i32 }
%struct.UConverterFromUnicodeArgs = type { i16, i8, ptr, ptr, ptr, ptr, ptr, ptr }

@_ZZL46T_UConverter_fromUnicode_UTF32_BE_OFFSET_LOGICP25UConverterFromUnicodeArgsP10UErrorCodeE3bom = internal constant [4 x i8] c"\00\00\FE\FF", align 1

; Function Attrs: inlinehint mustprogress nounwind uwtable
define internal noundef signext i8 @_ZL9U_SUCCESS10UErrorCode(i32 noundef %0) #4 {
  %2 = alloca i32, align 4
  store i32 %0, ptr %2, align 4, !tbaa !33
  %3 = load i32, ptr %2, align 4, !tbaa !33
  %4 = icmp sle i32 %3, 0
  %5 = zext i1 %4 to i8
  ret i8 %5
}

; Function Attrs: mustprogress uwtable
define internal void @_ZL46T_UConverter_fromUnicode_UTF32_BE_OFFSET_LOGICP25UConverterFromUnicodeArgsP10UErrorCode(ptr noundef %0, ptr noundef %1) #0 {
  %3 = alloca ptr, align 8
  %4 = alloca ptr, align 8
  %5 = alloca ptr, align 8
  %6 = alloca ptr, align 8
  %7 = alloca ptr, align 8
  %8 = alloca ptr, align 8
  %9 = alloca ptr, align 8
  %10 = alloca i32, align 4
  %11 = alloca i32, align 4
  %12 = alloca i32, align 4
  %13 = alloca i32, align 4
  %14 = alloca [4 x i8], align 1
  %15 = alloca i32, align 4
  store ptr %0, ptr %3, align 8, !tbaa !3
  store ptr %1, ptr %4, align 8, !tbaa !3
  call void @llvm.lifetime.start.p0(i64 8, ptr %5) #6
  %16 = load ptr, ptr %3, align 8, !tbaa !3
  %17 = getelementptr inbounds nuw %struct.UConverterFromUnicodeArgs, ptr %16, i32 0, i32 3
  %18 = load ptr, ptr %17, align 8, !tbaa !40
  store ptr %18, ptr %5, align 8, !tbaa !16
  call void @llvm.lifetime.start.p0(i64 8, ptr %6) #6
  call void @llvm.lifetime.start.p0(i64 8, ptr %7) #6
  call void @llvm.lifetime.start.p0(i64 8, ptr %8) #6
  %19 = load ptr, ptr %3, align 8, !tbaa !3
  %20 = getelementptr inbounds nuw %struct.UConverterFromUnicodeArgs, ptr %19, i32 0, i32 4
  %21 = load ptr, ptr %20, align 8, !tbaa !42
  store ptr %21, ptr %8, align 8, !tbaa !16
  call void @llvm.lifetime.start.p0(i64 8, ptr %9) #6
  %22 = load ptr, ptr %3, align 8, !tbaa !3
  %23 = getelementptr inbounds nuw %struct.UConverterFromUnicodeArgs, ptr %22, i32 0, i32 6
  %24 = load ptr, ptr %23, align 8, !tbaa !43
  store ptr %24, ptr %9, align 8, !tbaa !14
  call void @llvm.lifetime.start.p0(i64 4, ptr %10) #6
  call void @llvm.lifetime.start.p0(i64 4, ptr %11) #6
  call void @llvm.lifetime.start.p0(i64 4, ptr %12) #6
  store i32 0, ptr %12, align 4, !tbaa !25
  call void @llvm.lifetime.start.p0(i64 4, ptr %13) #6
  call void @llvm.lifetime.start.p0(i64 4, ptr %14) #6
  %25 = load ptr, ptr %5, align 8, !tbaa !16
  %26 = load ptr, ptr %8, align 8, !tbaa !16
  %27 = icmp uge ptr %25, %26
  br i1 %27, label %28, label %29

28:                                               ; preds = %2
  store i32 1, ptr %15, align 4
  br label %237

29:                                               ; preds = %2
  %30 = load ptr, ptr %3, align 8, !tbaa !3
  %31 = getelementptr inbounds nuw %struct.UConverterFromUnicodeArgs, ptr %30, i32 0, i32 2
  %32 = load ptr, ptr %31, align 8, !tbaa !44
  %33 = getelementptr inbounds nuw %struct.UConverter, ptr %32, i32 0, i32 16
  %34 = load i32, ptr %33, align 8, !tbaa !45
  %35 = icmp eq i32 %34, 1
  br i1 %35, label %36, label %52

36:                                               ; preds = %29
  %37 = load ptr, ptr %3, align 8, !tbaa !3
  %38 = getelementptr inbounds nuw %struct.UConverterFromUnicodeArgs, ptr %37, i32 0, i32 2
  %39 = load ptr, ptr %38, align 8, !tbaa !44
  %40 = load ptr, ptr %3, align 8, !tbaa !3
  %41 = getelementptr inbounds nuw %struct.UConverterFromUnicodeArgs, ptr %40, i32 0, i32 5
  %42 = load ptr, ptr %3, align 8, !tbaa !3
  %43 = getelementptr inbounds nuw %struct.UConverterFromUnicodeArgs, ptr %42, i32 0, i32 6
  %44 = load ptr, ptr %43, align 8, !tbaa !43
  %45 = load ptr, ptr %3, align 8, !tbaa !3
  %46 = getelementptr inbounds nuw %struct.UConverterFromUnicodeArgs, ptr %45, i32 0, i32 7
  %47 = load ptr, ptr %4, align 8, !tbaa !3
  call void @ucnv_fromUWriteBytes_77(ptr noundef %39, ptr noundef @_ZZL46T_UConverter_fromUnicode_UTF32_BE_OFFSET_LOGICP25UConverterFromUnicodeArgsP10UErrorCodeE3bom, i32 noundef 4, ptr noundef %41, ptr noundef %44, ptr noundef %46, i32 noundef -1, ptr noundef %47)
  %48 = load ptr, ptr %3, align 8, !tbaa !3
  %49 = getelementptr inbounds nuw %struct.UConverterFromUnicodeArgs, ptr %48, i32 0, i32 2
  %50 = load ptr, ptr %49, align 8, !tbaa !44
  %51 = getelementptr inbounds nuw %struct.UConverter, ptr %50, i32 0, i32 16
  store i32 0, ptr %51, align 8, !tbaa !45
  br label %52

52:                                               ; preds = %36, %29
  %53 = load ptr, ptr %3, align 8, !tbaa !3
  %54 = getelementptr inbounds nuw %struct.UConverterFromUnicodeArgs, ptr %53, i32 0, i32 5
  %55 = load ptr, ptr %54, align 8, !tbaa !46
  store ptr %55, ptr %6, align 8, !tbaa !14
  %56 = load ptr, ptr %3, align 8, !tbaa !3
  %57 = getelementptr inbounds nuw %struct.UConverterFromUnicodeArgs, ptr %56, i32 0, i32 7
  %58 = load ptr, ptr %57, align 8, !tbaa !52
  store ptr %58, ptr %7, align 8, !tbaa !37
  %59 = getelementptr inbounds [4 x i8], ptr %14, i64 0, i64 0
  store i8 0, ptr %59, align 1, !tbaa !27
  %60 = load ptr, ptr %3, align 8, !tbaa !3
  %61 = getelementptr inbounds nuw %struct.UConverterFromUnicodeArgs, ptr %60, i32 0, i32 2
  %62 = load ptr, ptr %61, align 8, !tbaa !44
  %63 = getelementptr inbounds nuw %struct.UConverter, ptr %62, i32 0, i32 17
  %64 = load i32, ptr %63, align 4, !tbaa !47
  %65 = icmp ne i32 %64, 0
  br i1 %65, label %66, label %76

66:                                               ; preds = %52
  %67 = load ptr, ptr %3, align 8, !tbaa !3
  %68 = getelementptr inbounds nuw %struct.UConverterFromUnicodeArgs, ptr %67, i32 0, i32 2
  %69 = load ptr, ptr %68, align 8, !tbaa !44
  %70 = getelementptr inbounds nuw %struct.UConverter, ptr %69, i32 0, i32 17
  %71 = load i32, ptr %70, align 4, !tbaa !47
  store i32 %71, ptr %10, align 4, !tbaa !25
  %72 = load ptr, ptr %3, align 8, !tbaa !3
  %73 = getelementptr inbounds nuw %struct.UConverterFromUnicodeArgs, ptr %72, i32 0, i32 2
  %74 = load ptr, ptr %73, align 8, !tbaa !44
  %75 = getelementptr inbounds nuw %struct.UConverter, ptr %74, i32 0, i32 17
  store i32 0, ptr %75, align 4, !tbaa !47
  br label %100

76:                                               ; preds = %52
  br label %77

77:                                               ; preds = %203, %76
  %78 = load ptr, ptr %5, align 8, !tbaa !16
  %79 = load ptr, ptr %8, align 8, !tbaa !16
  %80 = icmp ult ptr %78, %79
  br i1 %80, label %81, label %85

81:                                               ; preds = %77
  %82 = load ptr, ptr %6, align 8, !tbaa !14
  %83 = load ptr, ptr %9, align 8, !tbaa !14
  %84 = icmp ult ptr %82, %83
  br label %85

85:                                               ; preds = %81, %77
  %86 = phi i1 [ false, %77 ], [ %84, %81 ]
  br i1 %86, label %87, label %212

87:                                               ; preds = %85
  %88 = load ptr, ptr %5, align 8, !tbaa !16
  %89 = getelementptr inbounds nuw i16, ptr %88, i32 1
  store ptr %89, ptr %5, align 8, !tbaa !16
  %90 = load i16, ptr %88, align 2, !tbaa !30
  %91 = zext i16 %90 to i32
  store i32 %91, ptr %10, align 4, !tbaa !25
  %92 = load i32, ptr %10, align 4, !tbaa !25
  %93 = and i32 %92, -2048
  %94 = icmp eq i32 %93, 55296
  br i1 %94, label %95, label %150

95:                                               ; preds = %87
  %96 = load i32, ptr %10, align 4, !tbaa !25
  %97 = and i32 %96, -1024
  %98 = icmp eq i32 %97, 55296
  br i1 %98, label %99, label %142

99:                                               ; preds = %95
  br label %100

100:                                              ; preds = %99, %66
  %101 = load ptr, ptr %5, align 8, !tbaa !16
  %102 = load ptr, ptr %8, align 8, !tbaa !16
  %103 = icmp ult ptr %101, %102
  br i1 %103, label %104, label %128

104:                                              ; preds = %100
  %105 = load ptr, ptr %5, align 8, !tbaa !16
  %106 = load i16, ptr %105, align 2, !tbaa !30
  %107 = zext i16 %106 to i32
  store i32 %107, ptr %11, align 4, !tbaa !25
  %108 = load i32, ptr %11, align 4, !tbaa !25
  %109 = and i32 %108, -1024
  %110 = icmp eq i32 %109, 56320
  br i1 %110, label %111, label %120

111:                                              ; preds = %104
  %112 = load i32, ptr %10, align 4, !tbaa !25
  %113 = sub nsw i32 %112, 55296
  %114 = shl i32 %113, 10
  %115 = load i32, ptr %11, align 4, !tbaa !25
  %116 = add nsw i32 %114, %115
  %117 = add nsw i32 %116, 9216
  store i32 %117, ptr %10, align 4, !tbaa !25
  %118 = load ptr, ptr %5, align 8, !tbaa !16
  %119 = getelementptr inbounds nuw i16, ptr %118, i32 1
  store ptr %119, ptr %5, align 8, !tbaa !16
  br label %127

120:                                              ; preds = %104
  %121 = load i32, ptr %10, align 4, !tbaa !25
  %122 = load ptr, ptr %3, align 8, !tbaa !3
  %123 = getelementptr inbounds nuw %struct.UConverterFromUnicodeArgs, ptr %122, i32 0, i32 2
  %124 = load ptr, ptr %123, align 8, !tbaa !44
  %125 = getelementptr inbounds nuw %struct.UConverter, ptr %124, i32 0, i32 17
  store i32 %121, ptr %125, align 4, !tbaa !47
  %126 = load ptr, ptr %4, align 8, !tbaa !3
  store i32 12, ptr %126, align 4, !tbaa !33
  br label %212

127:                                              ; preds = %111
  br label %141

128:                                              ; preds = %100
  %129 = load i32, ptr %10, align 4, !tbaa !25
  %130 = load ptr, ptr %3, align 8, !tbaa !3
  %131 = getelementptr inbounds nuw %struct.UConverterFromUnicodeArgs, ptr %130, i32 0, i32 2
  %132 = load ptr, ptr %131, align 8, !tbaa !44
  %133 = getelementptr inbounds nuw %struct.UConverter, ptr %132, i32 0, i32 17
  store i32 %129, ptr %133, align 4, !tbaa !47
  %134 = load ptr, ptr %3, align 8, !tbaa !3
  %135 = getelementptr inbounds nuw %struct.UConverterFromUnicodeArgs, ptr %134, i32 0, i32 1
  %136 = load i8, ptr %135, align 2, !tbaa !48
  %137 = icmp ne i8 %136, 0
  br i1 %137, label %138, label %140

138:                                              ; preds = %128
  %139 = load ptr, ptr %4, align 8, !tbaa !3
  store i32 12, ptr %139, align 4, !tbaa !33
  br label %140

140:                                              ; preds = %138, %128
  br label %212

141:                                              ; preds = %127
  br label %149

142:                                              ; preds = %95
  %143 = load i32, ptr %10, align 4, !tbaa !25
  %144 = load ptr, ptr %3, align 8, !tbaa !3
  %145 = getelementptr inbounds nuw %struct.UConverterFromUnicodeArgs, ptr %144, i32 0, i32 2
  %146 = load ptr, ptr %145, align 8, !tbaa !44
  %147 = getelementptr inbounds nuw %struct.UConverter, ptr %146, i32 0, i32 17
  store i32 %143, ptr %147, align 4, !tbaa !47
  %148 = load ptr, ptr %4, align 8, !tbaa !3
  store i32 12, ptr %148, align 4, !tbaa !33
  br label %212

149:                                              ; preds = %141
  br label %150

150:                                              ; preds = %149, %87
  %151 = load i32, ptr %10, align 4, !tbaa !25
  %152 = ashr i32 %151, 16
  %153 = and i32 %152, 31
  %154 = trunc i32 %153 to i8
  %155 = getelementptr inbounds [4 x i8], ptr %14, i64 0, i64 1
  store i8 %154, ptr %155, align 1, !tbaa !27
  %156 = load i32, ptr %10, align 4, !tbaa !25
  %157 = ashr i32 %156, 8
  %158 = trunc i32 %157 to i8
  %159 = getelementptr inbounds [4 x i8], ptr %14, i64 0, i64 2
  store i8 %158, ptr %159, align 1, !tbaa !27
  %160 = load i32, ptr %10, align 4, !tbaa !25
  %161 = trunc i32 %160 to i8
  %162 = getelementptr inbounds [4 x i8], ptr %14, i64 0, i64 3
  store i8 %161, ptr %162, align 1, !tbaa !27
  store i32 0, ptr %13, align 4, !tbaa !25
  br label %163

163:                                              ; preds = %200, %150
  %164 = load i32, ptr %13, align 4, !tbaa !25
  %165 = zext i32 %164 to i64
  %166 = icmp ule i64 %165, 3
  br i1 %166, label %167, label %203

167:                                              ; preds = %163
  %168 = load ptr, ptr %6, align 8, !tbaa !14
  %169 = load ptr, ptr %9, align 8, !tbaa !14
  %170 = icmp ult ptr %168, %169
  br i1 %170, label %171, label %181

171:                                              ; preds = %167
  %172 = load i32, ptr %13, align 4, !tbaa !25
  %173 = zext i32 %172 to i64
  %174 = getelementptr inbounds nuw [4 x i8], ptr %14, i64 0, i64 %173
  %175 = load i8, ptr %174, align 1, !tbaa !27
  %176 = load ptr, ptr %6, align 8, !tbaa !14
  %177 = getelementptr inbounds nuw i8, ptr %176, i32 1
  store ptr %177, ptr %6, align 8, !tbaa !14
  store i8 %175, ptr %176, align 1, !tbaa !27
  %178 = load i32, ptr %12, align 4, !tbaa !25
  %179 = load ptr, ptr %7, align 8, !tbaa !37
  %180 = getelementptr inbounds nuw i32, ptr %179, i32 1
  store ptr %180, ptr %7, align 8, !tbaa !37
  store i32 %178, ptr %179, align 4, !tbaa !25
  br label %199

181:                                              ; preds = %167
  %182 = load i32, ptr %13, align 4, !tbaa !25
  %183 = zext i32 %182 to i64
  %184 = getelementptr inbounds nuw [4 x i8], ptr %14, i64 0, i64 %183
  %185 = load i8, ptr %184, align 1, !tbaa !27
  %186 = load ptr, ptr %3, align 8, !tbaa !3
  %187 = getelementptr inbounds nuw %struct.UConverterFromUnicodeArgs, ptr %186, i32 0, i32 2
  %188 = load ptr, ptr %187, align 8, !tbaa !44
  %189 = getelementptr inbounds nuw %struct.UConverter, ptr %188, i32 0, i32 27
  %190 = load ptr, ptr %3, align 8, !tbaa !3
  %191 = getelementptr inbounds nuw %struct.UConverterFromUnicodeArgs, ptr %190, i32 0, i32 2
  %192 = load ptr, ptr %191, align 8, !tbaa !44
  %193 = getelementptr inbounds nuw %struct.UConverter, ptr %192, i32 0, i32 21
  %194 = load i8, ptr %193, align 1, !tbaa !49
  %195 = add i8 %194, 1
  store i8 %195, ptr %193, align 1, !tbaa !49
  %196 = sext i8 %194 to i64
  %197 = getelementptr inbounds [32 x i8], ptr %189, i64 0, i64 %196
  store i8 %185, ptr %197, align 1, !tbaa !27
  %198 = load ptr, ptr %4, align 8, !tbaa !3
  store i32 15, ptr %198, align 4, !tbaa !33
  br label %199

199:                                              ; preds = %181, %171
  br label %200

200:                                              ; preds = %199
  %201 = load i32, ptr %13, align 4, !tbaa !25
  %202 = add i32 %201, 1
  store i32 %202, ptr %13, align 4, !tbaa !25
  br label %163, !llvm.loop !53

203:                                              ; preds = %163
  %204 = load i32, ptr %12, align 4, !tbaa !25
  %205 = add nsw i32 %204, 1
  %206 = getelementptr inbounds [4 x i8], ptr %14, i64 0, i64 1
  %207 = load i8, ptr %206, align 1, !tbaa !27
  %208 = zext i8 %207 to i32
  %209 = icmp ne i32 %208, 0
  %210 = zext i1 %209 to i32
  %211 = add nsw i32 %205, %210
  store i32 %211, ptr %12, align 4, !tbaa !25
  br label %77, !llvm.loop !54

212:                                              ; preds = %142, %140, %120, %85
  %213 = load ptr, ptr %5, align 8, !tbaa !16
  %214 = load ptr, ptr %8, align 8, !tbaa !16
  %215 = icmp ult ptr %213, %214
  br i1 %215, label %216, label %227

216:                                              ; preds = %212
  %217 = load ptr, ptr %6, align 8, !tbaa !14
  %218 = load ptr, ptr %9, align 8, !tbaa !14
  %219 = icmp uge ptr %217, %218
  br i1 %219, label %220, label %227

220:                                              ; preds = %216
  %221 = load ptr, ptr %4, align 8, !tbaa !3
  %222 = load i32, ptr %221, align 4, !tbaa !33
  %223 = call noundef signext i8 @_ZL9U_SUCCESS10UErrorCode(i32 noundef %222)
  %224 = icmp ne i8 %223, 0
  br i1 %224, label %225, label %227

225:                                              ; preds = %220
  %226 = load ptr, ptr %4, align 8, !tbaa !3
  store i32 15, ptr %226, align 4, !tbaa !33
  br label %227

227:                                              ; preds = %225, %220, %216, %212
  %228 = load ptr, ptr %6, align 8, !tbaa !14
  %229 = load ptr, ptr %3, align 8, !tbaa !3
  %230 = getelementptr inbounds nuw %struct.UConverterFromUnicodeArgs, ptr %229, i32 0, i32 5
  store ptr %228, ptr %230, align 8, !tbaa !46
  %231 = load ptr, ptr %5, align 8, !tbaa !16
  %232 = load ptr, ptr %3, align 8, !tbaa !3
  %233 = getelementptr inbounds nuw %struct.UConverterFromUnicodeArgs, ptr %232, i32 0, i32 3
  store ptr %231, ptr %233, align 8, !tbaa !40
  %234 = load ptr, ptr %7, align 8, !tbaa !37
  %235 = load ptr, ptr %3, align 8, !tbaa !3
  %236 = getelementptr inbounds nuw %struct.UConverterFromUnicodeArgs, ptr %235, i32 0, i32 7
  store ptr %234, ptr %236, align 8, !tbaa !52
  store i32 0, ptr %15, align 4
  br label %237

237:                                              ; preds = %227, %28
  call void @llvm.lifetime.end.p0(i64 4, ptr %14) #6
  call void @llvm.lifetime.end.p0(i64 4, ptr %13) #6
  call void @llvm.lifetime.end.p0(i64 4, ptr %12) #6
  call void @llvm.lifetime.end.p0(i64 4, ptr %11) #6
  call void @llvm.lifetime.end.p0(i64 4, ptr %10) #6
  call void @llvm.lifetime.end.p0(i64 8, ptr %9) #6
  call void @llvm.lifetime.end.p0(i64 8, ptr %8) #6
  call void @llvm.lifetime.end.p0(i64 8, ptr %7) #6
  call void @llvm.lifetime.end.p0(i64 8, ptr %6) #6
  call void @llvm.lifetime.end.p0(i64 8, ptr %5) #6
  %238 = load i32, ptr %15, align 4
  switch i32 %238, label %240 [
    i32 0, label %239
    i32 1, label %239
  ]

239:                                              ; preds = %237, %237
  ret void

240:                                              ; preds = %237
  unreachable
}