; Function Attrs: mustprogress uwtable
define internal void @_ZL46T_UConverter_fromUnicode_UTF32_BE_OFFSET_LOGICP25UConverterFromUnicodeArgsP10UErrorCode(ptr noundef %0, ptr noundef %1) #1 {
  %3 = alloca [4 x i8], align 1
  %4 = getelementptr inbounds nuw i8, ptr %0, i64 16
  %5 = load ptr, ptr %4, align 8, !tbaa !36
  %6 = getelementptr inbounds nuw i8, ptr %0, i64 24
  %7 = load ptr, ptr %6, align 8, !tbaa !38
  %8 = getelementptr inbounds nuw i8, ptr %0, i64 40
  %9 = load ptr, ptr %8, align 8, !tbaa !39
  call void @llvm.lifetime.start.p0(i64 4, ptr nonnull %3) #7
  %.not = icmp ult ptr %5, %7
  br i1 %.not, label %10, label %101

10:                                               ; preds = %2
  %11 = getelementptr inbounds nuw i8, ptr %0, i64 8
  %12 = load ptr, ptr %11, align 8, !tbaa !40
  %13 = getelementptr inbounds nuw i8, ptr %12, i64 80
  %14 = load i32, ptr %13, align 8, !tbaa !41
  %15 = icmp eq i32 %14, 1
  br i1 %15, label %16, label %21

16:                                               ; preds = %10
  %17 = getelementptr inbounds nuw i8, ptr %0, i64 32
  %18 = getelementptr inbounds nuw i8, ptr %0, i64 48
  tail call void @ucnv_fromUWriteBytes_77(ptr noundef nonnull %12, ptr noundef nonnull @_ZZL46T_UConverter_fromUnicode_UTF32_BE_OFFSET_LOGICP25UConverterFromUnicodeArgsP10UErrorCodeE3bom, i32 noundef 4, ptr noundef nonnull %17, ptr noundef %9, ptr noundef nonnull %18, i32 noundef -1, ptr noundef %1)
  %19 = load ptr, ptr %11, align 8, !tbaa !40
  %20 = getelementptr inbounds nuw i8, ptr %19, i64 80
  store i32 0, ptr %20, align 8, !tbaa !41
  br label %21

21:                                               ; preds = %16, %10
  %22 = phi ptr [ %19, %16 ], [ %12, %10 ]
  %23 = getelementptr inbounds nuw i8, ptr %0, i64 32
  %24 = load ptr, ptr %23, align 8, !tbaa !42
  %25 = getelementptr inbounds nuw i8, ptr %0, i64 48
  %26 = load ptr, ptr %25, align 8, !tbaa !47
  store i8 0, ptr %3, align 1, !tbaa !23
  %27 = getelementptr inbounds nuw i8, ptr %22, i64 84
  %28 = load i32, ptr %27, align 4, !tbaa !43
  %.not88 = icmp eq i32 %28, 0
  br i1 %.not88, label %30, label %29

29:                                               ; preds = %21
  store i32 0, ptr %27, align 4, !tbaa !43
  br label %43

30:                                               ; preds = %21, %86
  %.179 = phi ptr [ %.583, %86 ], [ %26, %21 ]
  %.175 = phi ptr [ %.5, %86 ], [ %24, %21 ]
  %.170 = phi ptr [ %.3, %86 ], [ %5, %21 ]
  %.1 = phi i32 [ %91, %86 ], [ 0, %21 ]
  %31 = icmp ult ptr %.170, %7
  %32 = icmp ult ptr %.175, %9
  %33 = select i1 %31, i1 %32, i1 false
  br i1 %33, label %34, label %94

34:                                               ; preds = %30
  %35 = getelementptr inbounds nuw i8, ptr %.170, i64 2
  %36 = load i16, ptr %.170, align 2, !tbaa !26
  %37 = zext i16 %36 to i32
  %38 = and i32 %37, 63488
  %39 = icmp eq i32 %38, 55296
  br i1 %39, label %40, label %60

40:                                               ; preds = %34
  %41 = and i32 %37, 56320
  %42 = icmp eq i32 %41, 55296
  br i1 %42, label %43, label %.sink.split.sink.split

43:                                               ; preds = %40, %29
  %.078 = phi ptr [ %26, %29 ], [ %.179, %40 ]
  %.074 = phi ptr [ %24, %29 ], [ %.175, %40 ]
  %.072 = phi i32 [ %28, %29 ], [ %37, %40 ]
  %.069 = phi ptr [ %5, %29 ], [ %35, %40 ]
  %.068 = phi i32 [ 0, %29 ], [ %.1, %40 ]
  %44 = icmp ult ptr %.069, %7
  br i1 %44, label %45, label %55

45:                                               ; preds = %43
  %46 = load i16, ptr %.069, align 2, !tbaa !26
  %47 = zext i16 %46 to i32
  %48 = and i32 %47, 64512
  %49 = icmp eq i32 %48, 56320
  br i1 %49, label %50, label %.sink.split.sink.split

50:                                               ; preds = %45
  %51 = shl i32 %.072, 10
  %52 = add i32 %51, -56613888
  %53 = add i32 %52, %47
  %54 = getelementptr inbounds nuw i8, ptr %.069, i64 2
  br label %60

55:                                               ; preds = %43
  %56 = load ptr, ptr %11, align 8, !tbaa !40
  %57 = getelementptr inbounds nuw i8, ptr %56, i64 84
  store i32 %.072, ptr %57, align 4, !tbaa !43
  %58 = getelementptr inbounds nuw i8, ptr %0, i64 2
  %59 = load i8, ptr %58, align 2, !tbaa !44
  %.not89 = icmp eq i8 %59, 0
  br i1 %.not89, label %94, label %.sink.split

60:                                               ; preds = %50, %34
  %.381 = phi ptr [ %.078, %50 ], [ %.179, %34 ]
  %.377 = phi ptr [ %.074, %50 ], [ %.175, %34 ]
  %.173 = phi i32 [ %53, %50 ], [ %37, %34 ]
  %.3 = phi ptr [ %54, %50 ], [ %35, %34 ]
  %.2 = phi i32 [ %.068, %50 ], [ %.1, %34 ]
  %61 = lshr i32 %.173, 16
  %62 = trunc i32 %61 to i8
  %63 = and i8 %62, 31
  %64 = getelementptr inbounds nuw i8, ptr %3, i64 1
  store i8 %63, ptr %64, align 1, !tbaa !23
  %65 = lshr i32 %.173, 8
  %66 = trunc i32 %65 to i8
  %67 = getelementptr inbounds nuw i8, ptr %3, i64 2
  store i8 %66, ptr %67, align 1, !tbaa !23
  %68 = trunc i32 %.173 to i8
  %69 = getelementptr inbounds nuw i8, ptr %3, i64 3
  store i8 %68, ptr %69, align 1, !tbaa !23
  br label %70

70:                                               ; preds = %60, %85
  %indvars.iv = phi i64 [ 0, %60 ], [ %indvars.iv.next, %85 ]
  %.493 = phi ptr [ %.377, %60 ], [ %.5, %85 ]
  %.48292 = phi ptr [ %.381, %60 ], [ %.583, %85 ]
  %71 = icmp ult ptr %.493, %9
  %72 = getelementptr inbounds nuw [4 x i8], ptr %3, i64 0, i64 %indvars.iv
  %73 = load i8, ptr %72, align 1, !tbaa !23
  br i1 %71, label %74, label %77

74:                                               ; preds = %70
  %75 = getelementptr inbounds nuw i8, ptr %.493, i64 1
  store i8 %73, ptr %.493, align 1, !tbaa !23
  %76 = getelementptr inbounds nuw i8, ptr %.48292, i64 4
  store i32 %.2, ptr %.48292, align 4, !tbaa !34
  br label %85

77:                                               ; preds = %70
  %78 = load ptr, ptr %11, align 8, !tbaa !40
  %79 = getelementptr inbounds nuw i8, ptr %78, i64 104
  %80 = getelementptr inbounds nuw i8, ptr %78, i64 91
  %81 = load i8, ptr %80, align 1, !tbaa !45
  %82 = add i8 %81, 1
  store i8 %82, ptr %80, align 1, !tbaa !45
  %83 = sext i8 %81 to i64
  %84 = getelementptr inbounds [32 x i8], ptr %79, i64 0, i64 %83
  store i8 %73, ptr %84, align 1, !tbaa !23
  store i32 15, ptr %1, align 4, !tbaa !30
  br label %85

85:                                               ; preds = %74, %77
  %.583 = phi ptr [ %76, %74 ], [ %.48292, %77 ]
  %.5 = phi ptr [ %75, %74 ], [ %.493, %77 ]
  %indvars.iv.next = add nuw nsw i64 %indvars.iv, 1
  %exitcond.not = icmp eq i64 %indvars.iv.next, 4
  br i1 %exitcond.not, label %86, label %70, !llvm.loop !48

86:                                               ; preds = %85
  %87 = add nsw i32 %.2, 1
  %88 = load i8, ptr %64, align 1, !tbaa !23
  %89 = icmp ne i8 %88, 0
  %90 = zext i1 %89 to i32
  %91 = add nsw i32 %87, %90
  br label %30, !llvm.loop !49

.sink.split.sink.split:                           ; preds = %40, %45
  %.072.sink = phi i32 [ %.072, %45 ], [ %37, %40 ]
  %.280.ph.ph = phi ptr [ %.078, %45 ], [ %.179, %40 ]
  %.276.ph.ph = phi ptr [ %.074, %45 ], [ %.175, %40 ]
  %.271.ph.ph = phi ptr [ %.069, %45 ], [ %35, %40 ]
  %92 = load ptr, ptr %11, align 8, !tbaa !40
  %93 = getelementptr inbounds nuw i8, ptr %92, i64 84
  store i32 %.072.sink, ptr %93, align 4, !tbaa !43
  br label %.sink.split

.sink.split:                                      ; preds = %.sink.split.sink.split, %55
  %.280.ph = phi ptr [ %.078, %55 ], [ %.280.ph.ph, %.sink.split.sink.split ]
  %.276.ph = phi ptr [ %.074, %55 ], [ %.276.ph.ph, %.sink.split.sink.split ]
  %.271.ph = phi ptr [ %.069, %55 ], [ %.271.ph.ph, %.sink.split.sink.split ]
  store i32 12, ptr %1, align 4, !tbaa !30
  br label %94

94:                                               ; preds = %.sink.split, %55, %30
  %.280 = phi ptr [ %.179, %30 ], [ %.078, %55 ], [ %.280.ph, %.sink.split ]
  %.276 = phi ptr [ %.175, %30 ], [ %.074, %55 ], [ %.276.ph, %.sink.split ]
  %.271 = phi ptr [ %.170, %30 ], [ %.069, %55 ], [ %.271.ph, %.sink.split ]
  %95 = icmp uge ptr %.271, %7
  %.not90 = icmp ult ptr %.276, %9
  %or.cond = select i1 %95, i1 true, i1 %.not90
  br i1 %or.cond, label %100, label %96

96:                                               ; preds = %94
  %97 = load i32, ptr %1, align 4, !tbaa !30
  %98 = icmp sgt i32 %97, 0
  br i1 %98, label %100, label %99

99:                                               ; preds = %96
  store i32 15, ptr %1, align 4, !tbaa !30
  br label %100

100:                                              ; preds = %99, %96, %94
  store ptr %.276, ptr %23, align 8, !tbaa !42
  store ptr %.271, ptr %4, align 8, !tbaa !36
  store ptr %.280, ptr %25, align 8, !tbaa !47
  br label %101

101:                                              ; preds = %2, %100
  call void @llvm.lifetime.end.p0(i64 4, ptr nonnull %3) #7
  ret void
}